target datalayout = "e-m:e-p270:32:32-p271:32:32-p272:64:64-i64:64-i128:128-f80:128-n8:16:32:64-S128"
target triple = "x86_64-pc-linux-gnu"

%class.CachingCgroupController.0 = type { ptr, ptr }

@_ZN2os5Linux16_physical_memoryE = external global i64, align 8

; Function Attrs: mustprogress nounwind uwtable
define linkonce_odr hidden noundef ptr @_ZN23CachingCgroupControllerI22CgroupMemoryControllerE10controllerEv(ptr noundef nonnull align 8 dereferenceable(16) %0) #1 comdat align 2 {
  %2 = alloca ptr, align 8
  store ptr %0, ptr %2, align 8
  %3 = load ptr, ptr %2, align 8
  %4 = getelementptr inbounds %class.CachingCgroupController.0, ptr %3, i32 0, i32 0
  %5 = load ptr, ptr %4, align 8
  ret ptr %5
}

; Function Attrs: mustprogress nounwind uwtable
define linkonce_odr hidden noundef i64 @_ZN2os5Linux15physical_memoryEv() #1 comdat align 2 {
  %1 = load i64, ptr @_ZN2os5Linux16_physical_memoryE, align 8
  ret i64 %1
}

; Function Attrs: mustprogress nounwind uwtable
define hidden void @_ZN15CgroupSubsystem27print_version_specific_infoEP12outputStream(ptr noundef nonnull align 8 dereferenceable(8) %0, ptr noundef %1) #1 align 2 {
  %3 = alloca ptr, align 8
  %4 = alloca ptr, align 8
  %5 = alloca i64, align 8
  store ptr %0, ptr %3, align 8
  store ptr %1, ptr %4, align 8
  %6 = load ptr, ptr %3, align 8
  %7 = call noundef i64 @_ZN2os5Linux15physical_memoryEv()
  store i64 %7, ptr %5, align 8
  %8 = load ptr, ptr %6, align 8
  %9 = getelementptr inbounds ptr, ptr %8, i64 6
  %10 = load ptr, ptr %9, align 8
  %11 = call noundef ptr %10(ptr noundef nonnull align 8 dereferenceable(8) %6)
  %12 = call noundef ptr @_ZN23CachingCgroupControllerI22CgroupMemoryControllerE10controllerEv(ptr noundef nonnull align 8 dereferenceable(16) %11)
  %13 = load ptr, ptr %4, align 8
  %14 = load i64, ptr %5, align 8
  %15 = load ptr, ptr %12, align 8
  %16 = getelementptr inbounds ptr, ptr %15, i64 8
  %17 = load ptr, ptr %16, align 8
  call void %17(ptr noundef nonnull align 8 dereferenceable(8) %12, ptr noundef %13, i64 noundef %14)
  ret void
}