; Function Attrs: mustprogress nounwind uwtable
define hidden void @_ZN15CgroupSubsystem27print_version_specific_infoEP12outputStream(ptr noundef nonnull align 8 dereferenceable(8) %0, ptr noundef %1) local_unnamed_addr #0 align 2 {
  %3 = load i64, ptr @_ZN2os5Linux16_physical_memoryE, align 8
  %4 = load ptr, ptr %0, align 8
  %5 = getelementptr inbounds i8, ptr %4, i64 48
  %6 = load ptr, ptr %5, align 8
  %7 = tail call noundef ptr %6(ptr noundef nonnull align 8 dereferenceable(8) %0) #13
  %8 = load ptr, ptr %7, align 8
  %9 = load ptr, ptr %8, align 8
  %10 = getelementptr inbounds i8, ptr %9, i64 64
  %11 = load ptr, ptr %10, align 8
  tail call void %11(ptr noundef nonnull align 8 dereferenceable(8) %8, ptr noundef %1, i64 noundef %3) #13
  ret void
}